(dp1
S'ivywong'
p2
(dp3
S'match_ratio'
p4
cnumpy.core.multiarray
scalar
p5
(cnumpy
dtype
p6
(S'f8'
I0
I1
tRp7
(I3
S'<'
NNNI-1
I-1
I0
tbS'\x85\xebQ\xb8\x1e\x85\xeb?'
tRp8
sS'ngals'
p9
I100
ssS'stasmanian'
p10
(dp11
g4
g5
(g7
S'=\n\xd7\xa3p=\xea?'
tRp12
sg9
I100
ssS'42jkb'
p13
(dp14
g4
g5
(g7
S'\xd7\xa3p=\n\xd7\xeb?'
tRp15
sg9
I100
ssS'enno.middelberg'
p16
(dp17
g4
g5
(g7
S'\x1f\x85\xebQ\xb8\x1e\xed?'
tRp18
sg9
I100
ssS'vrooje'
p19
(dp20
g4
g5
(g7
S'\x9a\x99\x99\x99\x99\x99\xe9?'
tRp21
sg9
I100
ssS'akapinska'
p22
(dp23
g4
g5
(g7
S'{\x14\xaeG\xe1z\xec?'
tRp24
sg9
I100
ssS'xDocR'
p25
(dp26
g4
g5
(g7
S'\xd7\xa3p=\n\xd7\xeb?'
tRp27
sg9
I100
ssS'KWillett'
p28
(dp29
g4
g5
(g7
S'\xecQ\xb8\x1e\x85\xeb\xe9?'
tRp30
sg9
I100
ssS'klmasters'
p31
(dp32
g4
g5
(g7
S'q=\n\xd7\xa3p\xed?'
tRp33
sg9
I25
ss.