(dp1
VDolorous Edd
p2
(dp3
S'match_ratio'
p4
cnumpy.core.multiarray
scalar
p5
(cnumpy
dtype
p6
(S'f8'
I0
I1
tRp7
(I3
S'<'
NNNI-1
I-1
I0
tbS'UUUUUU\xe5?'
tRp8
sS'ngals'
p9
I12
ssVnico775
p10
(dp11
g4
g5
(g7
S'UUUUUU\xed?'
tRp12
sg9
I12
ssVpamelaann
p13
(dp14
g4
g5
(g7
S'\x9a\x99\x99\x99\x99\x99\xd9?'
tRp15
sg9
I35
ssVmattson
p16
(dp17
g4
g5
(g7
S'ffffff\xe6?'
tRp18
sg9
I20
ssVdude1818
p19
(dp20
g4
g5
(g7
S'\xecQ\xb8\x1e\x85\xeb\xe9?'
tRp21
sg9
I100
ssVbjornstromjennifet
p22
(dp23
g4
g5
(g7
S'\x92$I\x92$I\xd2?'
tRp24
sg9
I14
ssVorionsam1
p25
(dp26
g4
g5
(g7
S'333333\xe3?'
tRp27
sg9
I10
ssVplanetari7
p28
(dp29
g4
g5
(g7
S'UUUUUU\xd5?'
tRp30
sg9
I30
ssVantikodon
p31
(dp32
g4
g5
(g7
S'\x82\xb9v`\xae\x1d\xe8?'
tRp33
sg9
I69
ssVbiggsjrex
p34
(dp35
g4
g5
(g7
S'r\x1c\xc7q\x1c\xc7\xe1?'
tRp36
sg9
I18
ssVnilium
p37
(dp38
g4
g5
(g7
S'\x00\x00\x00\x00\x00\x00\xd0?'
tRp39
sg9
I16
ssVWizardHowl
p40
(dp41
g4
g5
(g7
S'\xb7m\xdb\xb6m\xdb\xe6?'
tRp42
sg9
I35
ss.