(dp1
VDolorous Edd
p2
I12
sVnico775
p3
I12
sVpamelaann
p4
I35
sVmattson
p5
I20
sVdude1818
p6
I100
sVbjornstromjennifet
p7
I14
sVorionsam1
p8
I10
sVplanetari7
p9
I30
sVantikodon
p10
I69
sVbiggsjrex
p11
I18
sVnilium
p12
I16
sVWizardHowl
p13
I35
s.